; Function Attrs: mustprogress nounwind uwtable
define hidden void @_ZN4cvc58internal6theory10EvalResultD2Ev(ptr noundef nonnull align 8 dereferenceable(40) %0) unnamed_addr #4 align 2 personality ptr @__gxx_personality_v0 {
  %2 = load i32, ptr %0, align 8, !tbaa !3
  switch i32 %2, label %_ZN4cvc58internal9BitVectorD2Ev.exit [
    i32 1, label %3
    i32 2, label %8
    i32 3, label %13
    i32 4, label %22
  ]

3:                                                ; preds = %1
  %4 = getelementptr inbounds nuw i8, ptr %0, i64 16
  invoke void @__gmpz_clear(ptr noundef nonnull align 8 dereferenceable(16) %4)
          to label %_ZN4cvc58internal9BitVectorD2Ev.exit unwind label %5

5:                                                ; preds = %3
  %6 = landingpad { ptr, i32 }
          catch ptr null
  %7 = extractvalue { ptr, i32 } %6, 0
  tail call void @__clang_call_terminate(ptr %7) #24
  unreachable

8:                                                ; preds = %1
  %9 = getelementptr inbounds nuw i8, ptr %0, i64 8
  invoke void @__gmpq_clear(ptr noundef nonnull align 8 dereferenceable(32) %9)
          to label %_ZN4cvc58internal9BitVectorD2Ev.exit unwind label %10

10:                                               ; preds = %8
  %11 = landingpad { ptr, i32 }
          catch ptr null
  %12 = extractvalue { ptr, i32 } %11, 0
  tail call void @__clang_call_terminate(ptr %12) #24
  unreachable

13:                                               ; preds = %1
  %14 = getelementptr inbounds nuw i8, ptr %0, i64 8
  %15 = load ptr, ptr %14, align 8, !tbaa !20
  %.not.i.i.i.i = icmp eq ptr %15, null
  br i1 %.not.i.i.i.i, label %_ZN4cvc58internal9BitVectorD2Ev.exit, label %16

16:                                               ; preds = %13
  %17 = getelementptr inbounds nuw i8, ptr %0, i64 24
  %18 = load ptr, ptr %17, align 8, !tbaa !23
  %19 = ptrtoint ptr %18 to i64
  %20 = ptrtoint ptr %15 to i64
  %21 = sub i64 %19, %20
  tail call void @_ZdlPvm(ptr noundef nonnull %15, i64 noundef %21) #25
  br label %_ZN4cvc58internal9BitVectorD2Ev.exit

22:                                               ; preds = %1
  %23 = getelementptr inbounds nuw i8, ptr %0, i64 8
  tail call void @_ZN4cvc58internal22UninterpretedSortValueD1Ev(ptr noundef nonnull align 8 dereferenceable(24) %23) #23
  br label %_ZN4cvc58internal9BitVectorD2Ev.exit

_ZN4cvc58internal9BitVectorD2Ev.exit:             ; preds = %16, %13, %8, %3, %1, %22
  ret void
}